Certificate:
    Data:
        Version: 1 (0x0)
        Serial Number: 1 (0x1)
    Signature Algorithm: md5WithRSAEncryption
        Issuer: C=US, ST=CA, O=Open vSwitch, OU=switchca, CN=OVS switchca CA Certificate (2015 Sep 15 13:35:47)
        Validity
            Not Before: Sep 15 04:35:47 2015 GMT
            Not After : Sep 12 04:35:47 2025 GMT
        Subject: C=US, ST=CA, O=Open vSwitch, OU=switchca, CN=OVS switchca CA Certificate (2015 Sep 15 13:35:47)
        Subject Public Key Info:
            Public Key Algorithm: rsaEncryption
                Public-Key: (2048 bit)
                Modulus:
                    00:98:04:9b:9f:2e:e2:0b:4a:59:9d:00:74:dc:b4:
                    cb:fc:8d:c4:7d:32:35:e5:1c:ee:94:f0:13:e6:54:
                    1c:2e:47:47:f0:bd:f2:7f:ae:cb:6a:2f:ec:74:5c:
                    14:39:80:bf:7b:d1:83:90:ec:7a:7d:02:8c:fc:67:
                    de:99:53:69:1f:5c:61:d5:0a:7f:93:df:02:d4:16:
                    d3:55:b8:28:5c:fd:32:5b:6c:af:03:c1:23:92:00:
                    0e:2b:eb:32:07:00:99:64:14:32:e4:f8:76:b3:06:
                    e1:d0:54:5a:fc:92:cd:5e:e5:b7:85:43:9e:b8:79:
                    e4:23:a6:3c:0c:42:78:f4:d3:7e:33:1c:f2:5a:24:
                    ac:24:61:2f:72:b3:b1:e7:99:4e:ef:2d:85:26:de:
                    b6:59:16:25:1a:65:ce:95:9c:fd:c7:3c:30:44:1d:
                    4c:3b:34:dd:8d:ad:1f:ee:06:8e:b1:2d:b1:bb:a6:
                    68:62:52:98:c2:2d:a3:14:75:a7:5f:24:10:4f:74:
                    4f:94:0b:61:bd:c5:f1:6b:78:fa:48:89:27:3b:04:
                    4d:25:50:d1:4f:63:3d:4b:3c:cc:fa:df:20:f1:0c:
                    3f:1d:44:9d:c2:3e:d4:12:07:72:a4:6a:11:03:2f:
                    1d:71:d5:b2:de:b4:a6:d8:ad:7a:ac:c9:c7:8e:12:
                    4d:47
                Exponent: 65537 (0x10001)
    Signature Algorithm: md5WithRSAEncryption
         28:3f:32:46:dd:a9:c0:30:46:9a:29:ec:90:36:14:aa:a7:0c:
         dc:67:a0:ec:81:dc:f9:34:35:c5:e4:9b:48:dd:c6:5a:ed:30:
         78:99:6c:32:8c:60:59:ab:dc:7a:86:bb:94:8b:98:db:62:33:
         bd:4f:16:40:50:12:db:e9:b6:0c:f2:0b:0d:90:9d:b7:7a:ae:
         b4:36:46:33:c5:ea:6a:37:ec:fe:6e:12:f1:98:10:89:48:fe:
         8a:68:11:1c:96:37:92:d9:cc:8a:ef:93:c3:53:6c:61:f7:f0:
         0b:2c:78:49:8e:e3:19:46:2b:1d:1c:65:c5:d9:6d:5d:04:54:
         e7:e0:c7:aa:49:78:7d:2d:35:11:7e:05:b1:47:e4:96:39:97:
         b5:5b:2b:6e:06:51:86:32:85:6a:7b:5f:63:08:85:31:6e:c3:
         12:0e:a0:ad:3a:d0:3f:db:e2:1b:6d:24:3a:bb:e7:61:5b:ba:
         1f:34:eb:34:07:e5:09:fe:0b:ba:76:48:49:6e:57:d4:14:76:
         11:af:52:39:9e:73:a7:e3:2a:5a:5c:fa:79:d7:7f:81:fd:80:
         a7:d4:92:07:ef:a6:05:60:f9:b4:81:cb:8e:cb:b5:9e:2c:5d:
         40:fb:dc:c1:63:95:82:0b:2f:aa:8c:38:1d:96:63:ed:c9:1b:
         ce:d2:d2:e7
-----BEGIN CERTIFICATE-----
MIIDeDCCAmACAQEwDQYJKoZIhvcNAQEEBQAwgYExCzAJBgNVBAYTAlVTMQswCQYD
VQQIEwJDQTEVMBMGA1UEChMMT3BlbiB2U3dpdGNoMREwDwYDVQQLEwhzd2l0Y2hj
YTE7MDkGA1UEAxMyT1ZTIHN3aXRjaGNhIENBIENlcnRpZmljYXRlICgyMDE1IFNl
cCAxNSAxMzozNTo0NykwHhcNMTUwOTE1MDQzNTQ3WhcNMjUwOTEyMDQzNTQ3WjCB
gTELMAkGA1UEBhMCVVMxCzAJBgNVBAgTAkNBMRUwEwYDVQQKEwxPcGVuIHZTd2l0
Y2gxETAPBgNVBAsTCHN3aXRjaGNhMTswOQYDVQQDEzJPVlMgc3dpdGNoY2EgQ0Eg
Q2VydGlmaWNhdGUgKDIwMTUgU2VwIDE1IDEzOjM1OjQ3KTCCASIwDQYJKoZIhvcN
AQEBBQADggEPADCCAQoCggEBAJgEm58u4gtKWZ0AdNy0y/yNxH0yNeUc7pTwE+ZU
HC5HR/C98n+uy2ov7HRcFDmAv3vRg5Dsen0CjPxn3plTaR9cYdUKf5PfAtQW01W4
KFz9MltsrwPBI5IADivrMgcAmWQUMuT4drMG4dBUWvySzV7lt4VDnrh55COmPAxC
ePTTfjMc8lokrCRhL3KzseeZTu8thSbetlkWJRplzpWc/cc8MEQdTDs03Y2tH+4G
jrEtsbumaGJSmMItoxR1p18kEE90T5QLYb3F8Wt4+kiJJzsETSVQ0U9jPUs8zPrf
IPEMPx1EncI+1BIHcqRqEQMvHXHVst60ptiteqzJx44STUcCAwEAATANBgkqhkiG
9w0BAQQFAAOCAQEAKD8yRt2pwDBGminskDYUqqcM3Geg7IHc+TQ1xeSbSN3GWu0w
eJlsMoxgWavceoa7lIuY22IzvU8WQFAS2+m2DPILDZCdt3qutDZGM8Xqajfs/m4S
8ZgQiUj+imgRHJY3ktnMiu+Tw1NsYffwCyx4SY7jGUYrHRxlxdltXQRU5+DHqkl4
fS01EX4FsUfkljmXtVsrbgZRhjKFantfYwiFMW7DEg6grTrQP9viG20kOrvnYVu6
HzTrNAflCf4LunZISW5X1BR2Ea9SOZ5zp+MqWlz6edd/gf2Ap9SSB++mBWD5tIHL
jsu1nixdQPvcwWOVggsvqow4HZZj7ckbztLS5w==
-----END CERTIFICATE-----
