Certificate:
    Data:
        Version: 1 (0x0)
        Serial Number: 2 (0x2)
    Signature Algorithm: md5WithRSAEncryption
        Issuer: C=US, ST=CA, O=Open vSwitch, OU=switchca, CN=OVS switchca CA Certificate (2015 Sep 15 13:35:47)
        Validity
            Not Before: Sep 15 04:36:00 2015 GMT
            Not After : Sep 12 04:36:00 2025 GMT
        Subject: C=US, ST=CA, O=Open vSwitch, OU=Open vSwitch certifier, CN=vtep id:b55b8c06-9593-4406-8a85-f7edd09a1ea9
        Subject Public Key Info:
            Public Key Algorithm: rsaEncryption
                Public-Key: (2048 bit)
                Modulus:
                    00:ca:57:ec:4d:a3:79:6c:a4:cd:21:c7:52:a8:9f:
                    61:85:ee:a5:91:79:4a:f3:80:ac:1b:ac:1a:6d:0b:
                    96:b9:cf:1f:a6:23:1f:45:ff:62:de:35:8f:e8:8d:
                    4a:63:23:70:d5:1e:78:72:86:04:08:e2:fd:66:04:
                    e0:1e:ce:57:03:98:f7:a5:92:5a:f1:cc:3c:24:37:
                    22:4e:97:0d:65:4b:98:08:5b:cd:1c:eb:67:f5:9c:
                    c0:ba:86:94:2a:15:dc:5d:47:6e:45:49:03:62:a3:
                    37:5f:54:58:42:49:6d:a3:4c:c6:21:f6:08:36:8c:
                    69:20:6a:f8:7c:5d:82:30:14:1a:15:ad:b9:42:ba:
                    5d:13:99:e2:6f:aa:10:e4:e1:25:58:90:66:a7:e7:
                    bc:c7:e4:5c:79:2a:1b:b2:b3:d1:7b:4d:78:a6:28:
                    66:bc:ee:97:6b:b4:3d:a0:65:16:10:04:fb:e9:4e:
                    82:ac:88:c2:6a:a4:0e:d6:e5:ad:ee:bc:50:a7:73:
                    97:6d:12:96:46:cb:ee:4d:15:ad:d4:a3:b5:95:82:
                    2e:e7:1b:69:70:1d:b5:c9:06:47:44:2b:55:84:23:
                    5b:75:56:86:c4:a7:b9:1d:46:9e:fa:8a:a5:dc:f9:
                    70:16:6a:87:ee:20:1b:02:d1:2d:83:65:e0:7c:24:
                    99:e9
                Exponent: 65537 (0x10001)
    Signature Algorithm: md5WithRSAEncryption
         50:bf:af:aa:b5:a7:3c:67:2e:34:92:8a:b8:cc:b9:96:a8:b8:
         16:cd:d5:5d:d3:b6:1c:44:b4:08:c5:89:ea:17:97:88:a4:e4:
         89:b9:69:2b:71:36:77:05:dc:0a:50:fe:2d:8f:8c:72:a5:b9:
         b1:45:23:0d:d3:7a:80:c8:9e:66:74:e2:42:ee:96:19:e5:88:
         3d:e3:ea:3c:d4:51:1e:e0:34:1f:0c:d3:9a:f7:99:9b:af:0b:
         23:57:87:f0:dc:8c:32:1c:e9:63:65:f3:cd:e5:22:ed:ea:fe:
         4f:be:0e:23:0d:8e:3e:09:aa:5e:20:2b:1a:4f:70:92:4a:a9:
         24:6e:a0:c6:86:b5:14:7d:52:71:cf:b8:5c:75:d4:6a:92:06:
         30:cf:71:72:ff:44:63:22:10:79:38:53:ec:6f:19:3d:63:92:
         69:3f:f2:f4:28:d4:ef:dd:af:32:84:c5:a0:c0:c9:5f:1f:02:
         47:76:bd:85:85:4e:7c:58:61:1a:ce:4c:03:45:d7:5c:dd:59:
         6c:22:e0:cb:2c:2d:b1:44:4c:03:dd:21:ff:58:6e:f7:09:4f:
         34:e0:24:3a:67:b1:33:ae:4a:bc:85:db:4b:12:ef:21:66:6a:
         f0:b9:ea:90:72:b1:0b:34:9a:8d:be:f3:d1:02:56:0f:d7:bb:
         0a:eb:c2:f1
-----BEGIN CERTIFICATE-----
MIIDgDCCAmgCAQIwDQYJKoZIhvcNAQEEBQAwgYExCzAJBgNVBAYTAlVTMQswCQYD
VQQIEwJDQTEVMBMGA1UEChMMT3BlbiB2U3dpdGNoMREwDwYDVQQLEwhzd2l0Y2hj
YTE7MDkGA1UEAxMyT1ZTIHN3aXRjaGNhIENBIENlcnRpZmljYXRlICgyMDE1IFNl
cCAxNSAxMzozNTo0NykwHhcNMTUwOTE1MDQzNjAwWhcNMjUwOTEyMDQzNjAwWjCB
iTELMAkGA1UEBhMCVVMxCzAJBgNVBAgTAkNBMRUwEwYDVQQKEwxPcGVuIHZTd2l0
Y2gxHzAdBgNVBAsTFk9wZW4gdlN3aXRjaCBjZXJ0aWZpZXIxNTAzBgNVBAMTLHZ0
ZXAgaWQ6YjU1YjhjMDYtOTU5My00NDA2LThhODUtZjdlZGQwOWExZWE5MIIBIjAN
BgkqhkiG9w0BAQEFAAOCAQ8AMIIBCgKCAQEAylfsTaN5bKTNIcdSqJ9hhe6lkXlK
84CsG6wabQuWuc8fpiMfRf9i3jWP6I1KYyNw1R54coYECOL9ZgTgHs5XA5j3pZJa
8cw8JDciTpcNZUuYCFvNHOtn9ZzAuoaUKhXcXUduRUkDYqM3X1RYQklto0zGIfYI
NoxpIGr4fF2CMBQaFa25QrpdE5nib6oQ5OElWJBmp+e8x+RceSobsrPRe014pihm
vO6Xa7Q9oGUWEAT76U6CrIjCaqQO1uWt7rxQp3OXbRKWRsvuTRWt1KO1lYIu5xtp
cB21yQZHRCtVhCNbdVaGxKe5HUae+oql3PlwFmqH7iAbAtEtg2XgfCSZ6QIDAQAB
MA0GCSqGSIb3DQEBBAUAA4IBAQBQv6+qtac8Zy40koq4zLmWqLgWzdVd07YcRLQI
xYnqF5eIpOSJuWkrcTZ3BdwKUP4tj4xypbmxRSMN03qAyJ5mdOJC7pYZ5Yg94+o8
1FEe4DQfDNOa95mbrwsjV4fw3IwyHOljZfPN5SLt6v5Pvg4jDY4+CapeICsaT3CS
SqkkbqDGhrUUfVJxz7hcddRqkgYwz3Fy/0RjIhB5OFPsbxk9Y5JpP/L0KNTv3a8y
hMWgwMlfHwJHdr2FhU58WGEazkwDRddc3VlsIuDLLC2xREwD3SH/WG73CU804CQ6
Z7Ezrkq8hdtLEu8hZmrwueqQcrELNJqNvvPRAlYP17sK68Lx
-----END CERTIFICATE-----
